target datalayout = "e-m:e-p270:32:32-p271:32:32-p272:64:64-i64:64-i128:128-f80:128-n8:16:32:64-S128"
target triple = "x86_64-unknown-linux-gnu"

%struct.dh_st = type { ptr, ptr, ptr, ptr, i32, %union.crypto_mutex_st, ptr, ptr, ptr, ptr, i32, ptr, i32, i32, %struct.crypto_ex_data_st }
%union.crypto_mutex_st = type { double, [48 x i8] }
%struct.crypto_ex_data_st = type { ptr }

@.str = private unnamed_addr constant [118 x i8] c"generated/home/dtcxzyw/WorkSpace/Projects/compilers/llvm-opt-benchmark/bench/libquic/libquic/boringssl/crypto/dh/dh.c\00", align 1

; Function Attrs: nounwind uwtable
define internal i32 @int_dh_bn_cpy(ptr noundef %dst, ptr noundef %src) #0 {
entry:
  %retval = alloca i32, align 4
  %dst.addr = alloca ptr, align 8
  %src.addr = alloca ptr, align 8
  %a = alloca ptr, align 8
  store ptr %dst, ptr %dst.addr, align 8
  store ptr %src, ptr %src.addr, align 8
  store ptr null, ptr %a, align 8
  %0 = load ptr, ptr %src.addr, align 8
  %tobool = icmp ne ptr %0, null
  br i1 %tobool, label %if.then, label %if.end3

if.then:                                          ; preds = %entry
  %1 = load ptr, ptr %src.addr, align 8
  %call = call ptr @BN_dup(ptr noundef %1)
  store ptr %call, ptr %a, align 8
  %2 = load ptr, ptr %a, align 8
  %tobool1 = icmp ne ptr %2, null
  br i1 %tobool1, label %if.end, label %if.then2

if.then2:                                         ; preds = %if.then
  store i32 0, ptr %retval, align 4
  br label %return

if.end:                                           ; preds = %if.then
  br label %if.end3

if.end3:                                          ; preds = %if.end, %entry
  %3 = load ptr, ptr %dst.addr, align 8
  %4 = load ptr, ptr %3, align 8
  call void @BN_free(ptr noundef %4)
  %5 = load ptr, ptr %a, align 8
  %6 = load ptr, ptr %dst.addr, align 8
  store ptr %5, ptr %6, align 8
  store i32 1, ptr %retval, align 4
  br label %return

return:                                           ; preds = %if.end3, %if.then2
  %7 = load i32, ptr %retval, align 4
  ret i32 %7
}

; Function Attrs: nounwind uwtable
define internal i32 @int_dh_param_copy(ptr noundef %to, ptr noundef %from, i32 noundef %is_x942) #0 {
entry:
  %retval = alloca i32, align 4
  %to.addr = alloca ptr, align 8
  %from.addr = alloca ptr, align 8
  %is_x942.addr = alloca i32, align 4
  store ptr %to, ptr %to.addr, align 8
  store ptr %from, ptr %from.addr, align 8
  store i32 %is_x942, ptr %is_x942.addr, align 4
  %0 = load i32, ptr %is_x942.addr, align 4
  %cmp = icmp eq i32 %0, -1
  br i1 %cmp, label %if.then, label %if.end

if.then:                                          ; preds = %entry
  %1 = load ptr, ptr %from.addr, align 8
  %q = getelementptr inbounds %struct.dh_st, ptr %1, i32 0, i32 7
  %2 = load ptr, ptr %q, align 8
  %tobool = icmp ne ptr %2, null
  %lnot = xor i1 %tobool, true
  %lnot1 = xor i1 %lnot, true
  %lnot.ext = zext i1 %lnot1 to i32
  store i32 %lnot.ext, ptr %is_x942.addr, align 4
  br label %if.end

if.end:                                           ; preds = %if.then, %entry
  %3 = load ptr, ptr %to.addr, align 8
  %p = getelementptr inbounds %struct.dh_st, ptr %3, i32 0, i32 0
  %4 = load ptr, ptr %from.addr, align 8
  %p2 = getelementptr inbounds %struct.dh_st, ptr %4, i32 0, i32 0
  %5 = load ptr, ptr %p2, align 8
  %call = call i32 @int_dh_bn_cpy(ptr noundef %p, ptr noundef %5)
  %tobool3 = icmp ne i32 %call, 0
  br i1 %tobool3, label %lor.lhs.false, label %if.then7

lor.lhs.false:                                    ; preds = %if.end
  %6 = load ptr, ptr %to.addr, align 8
  %g = getelementptr inbounds %struct.dh_st, ptr %6, i32 0, i32 1
  %7 = load ptr, ptr %from.addr, align 8
  %g4 = getelementptr inbounds %struct.dh_st, ptr %7, i32 0, i32 1
  %8 = load ptr, ptr %g4, align 8
  %call5 = call i32 @int_dh_bn_cpy(ptr noundef %g, ptr noundef %8)
  %tobool6 = icmp ne i32 %call5, 0
  br i1 %tobool6, label %if.end8, label %if.then7

if.then7:                                         ; preds = %lor.lhs.false, %if.end
  store i32 0, ptr %retval, align 4
  br label %return

if.end8:                                          ; preds = %lor.lhs.false
  %9 = load i32, ptr %is_x942.addr, align 4
  %tobool9 = icmp ne i32 %9, 0
  br i1 %tobool9, label %if.end11, label %if.then10

if.then10:                                        ; preds = %if.end8
  store i32 1, ptr %retval, align 4
  br label %return

if.end11:                                         ; preds = %if.end8
  %10 = load ptr, ptr %to.addr, align 8
  %q12 = getelementptr inbounds %struct.dh_st, ptr %10, i32 0, i32 7
  %11 = load ptr, ptr %from.addr, align 8
  %q13 = getelementptr inbounds %struct.dh_st, ptr %11, i32 0, i32 7
  %12 = load ptr, ptr %q13, align 8
  %call14 = call i32 @int_dh_bn_cpy(ptr noundef %q12, ptr noundef %12)
  %tobool15 = icmp ne i32 %call14, 0
  br i1 %tobool15, label %lor.lhs.false16, label %if.then20

lor.lhs.false16:                                  ; preds = %if.end11
  %13 = load ptr, ptr %to.addr, align 8
  %j = getelementptr inbounds %struct.dh_st, ptr %13, i32 0, i32 8
  %14 = load ptr, ptr %from.addr, align 8
  %j17 = getelementptr inbounds %struct.dh_st, ptr %14, i32 0, i32 8
  %15 = load ptr, ptr %j17, align 8
  %call18 = call i32 @int_dh_bn_cpy(ptr noundef %j, ptr noundef %15)
  %tobool19 = icmp ne i32 %call18, 0
  br i1 %tobool19, label %if.end21, label %if.then20

if.then20:                                        ; preds = %lor.lhs.false16, %if.end11
  store i32 0, ptr %retval, align 4
  br label %return

if.end21:                                         ; preds = %lor.lhs.false16
  %16 = load ptr, ptr %to.addr, align 8
  %seed = getelementptr inbounds %struct.dh_st, ptr %16, i32 0, i32 9
  %17 = load ptr, ptr %seed, align 8
  call void @free(ptr noundef %17) #6
  %18 = load ptr, ptr %to.addr, align 8
  %seed22 = getelementptr inbounds %struct.dh_st, ptr %18, i32 0, i32 9
  store ptr null, ptr %seed22, align 8
  %19 = load ptr, ptr %to.addr, align 8
  %seedlen = getelementptr inbounds %struct.dh_st, ptr %19, i32 0, i32 10
  store i32 0, ptr %seedlen, align 8
  %20 = load ptr, ptr %from.addr, align 8
  %seed23 = getelementptr inbounds %struct.dh_st, ptr %20, i32 0, i32 9
  %21 = load ptr, ptr %seed23, align 8
  %tobool24 = icmp ne ptr %21, null
  br i1 %tobool24, label %if.then25, label %if.end36

if.then25:                                        ; preds = %if.end21
  %22 = load ptr, ptr %from.addr, align 8
  %seed26 = getelementptr inbounds %struct.dh_st, ptr %22, i32 0, i32 9
  %23 = load ptr, ptr %seed26, align 8
  %24 = load ptr, ptr %from.addr, align 8
  %seedlen27 = getelementptr inbounds %struct.dh_st, ptr %24, i32 0, i32 10
  %25 = load i32, ptr %seedlen27, align 8
  %conv = sext i32 %25 to i64
  %call28 = call ptr @BUF_memdup(ptr noundef %23, i64 noundef %conv)
  %26 = load ptr, ptr %to.addr, align 8
  %seed29 = getelementptr inbounds %struct.dh_st, ptr %26, i32 0, i32 9
  store ptr %call28, ptr %seed29, align 8
  %27 = load ptr, ptr %to.addr, align 8
  %seed30 = getelementptr inbounds %struct.dh_st, ptr %27, i32 0, i32 9
  %28 = load ptr, ptr %seed30, align 8
  %tobool31 = icmp ne ptr %28, null
  br i1 %tobool31, label %if.end33, label %if.then32

if.then32:                                        ; preds = %if.then25
  store i32 0, ptr %retval, align 4
  br label %return

if.end33:                                         ; preds = %if.then25
  %29 = load ptr, ptr %from.addr, align 8
  %seedlen34 = getelementptr inbounds %struct.dh_st, ptr %29, i32 0, i32 10
  %30 = load i32, ptr %seedlen34, align 8
  %31 = load ptr, ptr %to.addr, align 8
  %seedlen35 = getelementptr inbounds %struct.dh_st, ptr %31, i32 0, i32 10
  store i32 %30, ptr %seedlen35, align 8
  br label %if.end36

if.end36:                                         ; preds = %if.end33, %if.end21
  store i32 1, ptr %retval, align 4
  br label %return

return:                                           ; preds = %if.end36, %if.then32, %if.then20, %if.then10, %if.then7
  %32 = load i32, ptr %retval, align 4
  ret i32 %32
}

; Function Attrs: nounwind uwtable
define hidden ptr @DH_new() #0 {
entry:
  %retval = alloca ptr, align 8
  %dh = alloca ptr, align 8
  %call = call noalias ptr @malloc(i64 noundef 160) #5
  store ptr %call, ptr %dh, align 8
  %0 = load ptr, ptr %dh, align 8
  %cmp = icmp eq ptr %0, null
  br i1 %cmp, label %if.then, label %if.end

if.then:                                          ; preds = %entry
  call void @ERR_put_error(i32 noundef 5, i32 noundef 0, i32 noundef 65, ptr noundef @.str, i32 noundef 79)
  store ptr null, ptr %retval, align 8
  br label %return

if.end:                                           ; preds = %entry
  %1 = load ptr, ptr %dh, align 8
  call void @llvm.memset.p0.i64(ptr align 8 %1, i8 0, i64 160, i1 false)
  %2 = load ptr, ptr %dh, align 8
  %method_mont_p_lock = getelementptr inbounds %struct.dh_st, ptr %2, i32 0, i32 5
  call void @CRYPTO_MUTEX_init(ptr noundef %method_mont_p_lock)
  %3 = load ptr, ptr %dh, align 8
  %references = getelementptr inbounds %struct.dh_st, ptr %3, i32 0, i32 13
  store i32 1, ptr %references, align 4
  %4 = load ptr, ptr %dh, align 8
  %ex_data = getelementptr inbounds %struct.dh_st, ptr %4, i32 0, i32 14
  call void @CRYPTO_new_ex_data(ptr noundef %ex_data)
  %5 = load ptr, ptr %dh, align 8
  store ptr %5, ptr %retval, align 8
  br label %return

return:                                           ; preds = %if.end, %if.then
  %6 = load ptr, ptr %retval, align 8
  ret ptr %6
}

; Function Attrs: nounwind uwtable
define hidden ptr @DHparams_dup(ptr noundef %dh) #0 {
entry:
  %retval = alloca ptr, align 8
  %dh.addr = alloca ptr, align 8
  %ret = alloca ptr, align 8
  store ptr %dh, ptr %dh.addr, align 8
  %call = call ptr @DH_new()
  store ptr %call, ptr %ret, align 8
  %0 = load ptr, ptr %ret, align 8
  %tobool = icmp ne ptr %0, null
  br i1 %tobool, label %if.end, label %if.then

if.then:                                          ; preds = %entry
  store ptr null, ptr %retval, align 8
  br label %return

if.end:                                           ; preds = %entry
  %1 = load ptr, ptr %ret, align 8
  %2 = load ptr, ptr %dh.addr, align 8
  %call1 = call i32 @int_dh_param_copy(ptr noundef %1, ptr noundef %2, i32 noundef -1)
  %tobool2 = icmp ne i32 %call1, 0
  br i1 %tobool2, label %if.end4, label %if.then3

if.then3:                                         ; preds = %if.end
  %3 = load ptr, ptr %ret, align 8
  call void @DH_free(ptr noundef %3)
  store ptr null, ptr %retval, align 8
  br label %return

if.end4:                                          ; preds = %if.end
  %4 = load ptr, ptr %ret, align 8
  store ptr %4, ptr %retval, align 8
  br label %return

return:                                           ; preds = %if.end4, %if.then3, %if.then
  %5 = load ptr, ptr %retval, align 8
  ret ptr %5
}