; Function Attrs: nounwind uwtable
define hidden noundef ptr @DHparams_dup(ptr noundef readonly captures(none) %dh) local_unnamed_addr #0 {
entry:
  %calloc.i = tail call dereferenceable_or_null(160) ptr @calloc(i64 1, i64 160)
  %cmp.i = icmp eq ptr %calloc.i, null
  br i1 %cmp.i, label %DH_new.exit.thread, label %if.end

DH_new.exit.thread:                               ; preds = %entry
  tail call void @ERR_put_error(i32 noundef 5, i32 noundef 0, i32 noundef 65, ptr noundef nonnull @.str, i32 noundef 79) #4
  br label %return

if.end:                                           ; preds = %entry
  %method_mont_p_lock.i = getelementptr inbounds nuw i8, ptr %calloc.i, i64 40
  tail call void @CRYPTO_MUTEX_init(ptr noundef nonnull %method_mont_p_lock.i) #4
  %references.i = getelementptr inbounds nuw i8, ptr %calloc.i, i64 148
  store i32 1, ptr %references.i, align 4
  %ex_data.i = getelementptr inbounds nuw i8, ptr %calloc.i, i64 152
  tail call void @CRYPTO_new_ex_data(ptr noundef nonnull %ex_data.i) #4
  %q.i = getelementptr inbounds nuw i8, ptr %dh, i64 104
  %0 = load ptr, ptr %q.i, align 8
  %tobool.not.i = icmp eq ptr %0, null
  %1 = load ptr, ptr %dh, align 8
  %tobool.not.i.i = icmp eq ptr %1, null
  br i1 %tobool.not.i.i, label %lor.lhs.false.i, label %if.then.i.i

if.then.i.i:                                      ; preds = %if.end
  %call.i.i = tail call ptr @BN_dup(ptr noundef nonnull %1) #4
  %tobool1.not.i.i = icmp eq ptr %call.i.i, null
  br i1 %tobool1.not.i.i, label %if.then3, label %lor.lhs.false.i

lor.lhs.false.i:                                  ; preds = %if.then.i.i, %if.end
  %a.0.i.i = phi ptr [ %call.i.i, %if.then.i.i ], [ null, %if.end ]
  %2 = load ptr, ptr %calloc.i, align 8
  tail call void @BN_free(ptr noundef %2) #4
  store ptr %a.0.i.i, ptr %calloc.i, align 8
  %g.i = getelementptr inbounds nuw i8, ptr %calloc.i, i64 8
  %g4.i = getelementptr inbounds nuw i8, ptr %dh, i64 8
  %3 = load ptr, ptr %g4.i, align 8
  %tobool.not.i19.i = icmp eq ptr %3, null
  br i1 %tobool.not.i19.i, label %int_dh_bn_cpy.exit26.i, label %if.then.i20.i

if.then.i20.i:                                    ; preds = %lor.lhs.false.i
  %call.i21.i = tail call ptr @BN_dup(ptr noundef nonnull %3) #4
  %tobool1.not.i22.i = icmp eq ptr %call.i21.i, null
  br i1 %tobool1.not.i22.i, label %if.then3, label %int_dh_bn_cpy.exit26.i

int_dh_bn_cpy.exit26.i:                           ; preds = %if.then.i20.i, %lor.lhs.false.i
  %a.0.i24.i = phi ptr [ %call.i21.i, %if.then.i20.i ], [ null, %lor.lhs.false.i ]
  %4 = load ptr, ptr %g.i, align 8
  tail call void @BN_free(ptr noundef %4) #4
  store ptr %a.0.i24.i, ptr %g.i, align 8
  br i1 %tobool.not.i, label %return, label %if.end11.i

if.end11.i:                                       ; preds = %int_dh_bn_cpy.exit26.i
  %q12.i = getelementptr inbounds nuw i8, ptr %calloc.i, i64 104
  %5 = load ptr, ptr %q.i, align 8
  %tobool.not.i27.i = icmp eq ptr %5, null
  br i1 %tobool.not.i27.i, label %lor.lhs.false16.i, label %if.then.i28.i

if.then.i28.i:                                    ; preds = %if.end11.i
  %call.i29.i = tail call ptr @BN_dup(ptr noundef nonnull %5) #4
  %tobool1.not.i30.i = icmp eq ptr %call.i29.i, null
  br i1 %tobool1.not.i30.i, label %if.then3, label %lor.lhs.false16.i

lor.lhs.false16.i:                                ; preds = %if.then.i28.i, %if.end11.i
  %a.0.i32.i = phi ptr [ %call.i29.i, %if.then.i28.i ], [ null, %if.end11.i ]
  %6 = load ptr, ptr %q12.i, align 8
  tail call void @BN_free(ptr noundef %6) #4
  store ptr %a.0.i32.i, ptr %q12.i, align 8
  %j.i = getelementptr inbounds nuw i8, ptr %calloc.i, i64 112
  %j17.i = getelementptr inbounds nuw i8, ptr %dh, i64 112
  %7 = load ptr, ptr %j17.i, align 8
  %tobool.not.i35.i = icmp eq ptr %7, null
  br i1 %tobool.not.i35.i, label %if.end21.i, label %if.then.i36.i

if.then.i36.i:                                    ; preds = %lor.lhs.false16.i
  %call.i37.i = tail call ptr @BN_dup(ptr noundef nonnull %7) #4
  %tobool1.not.i38.i = icmp eq ptr %call.i37.i, null
  br i1 %tobool1.not.i38.i, label %if.then3, label %if.end21.i

if.end21.i:                                       ; preds = %if.then.i36.i, %lor.lhs.false16.i
  %a.0.i40.i = phi ptr [ %call.i37.i, %if.then.i36.i ], [ null, %lor.lhs.false16.i ]
  %8 = load ptr, ptr %j.i, align 8
  tail call void @BN_free(ptr noundef %8) #4
  store ptr %a.0.i40.i, ptr %j.i, align 8
  %seed.i = getelementptr inbounds nuw i8, ptr %calloc.i, i64 120
  %9 = load ptr, ptr %seed.i, align 8
  tail call void @free(ptr noundef %9) #4
  store ptr null, ptr %seed.i, align 8
  %seedlen.i = getelementptr inbounds nuw i8, ptr %calloc.i, i64 128
  store i32 0, ptr %seedlen.i, align 8
  %seed23.i = getelementptr inbounds nuw i8, ptr %dh, i64 120
  %10 = load ptr, ptr %seed23.i, align 8
  %tobool24.not.i = icmp eq ptr %10, null
  br i1 %tobool24.not.i, label %return, label %if.then25.i

if.then25.i:                                      ; preds = %if.end21.i
  %seedlen27.i = getelementptr inbounds nuw i8, ptr %dh, i64 128
  %11 = load i32, ptr %seedlen27.i, align 8
  %conv.i = sext i32 %11 to i64
  %call28.i = tail call ptr @BUF_memdup(ptr noundef nonnull %10, i64 noundef %conv.i) #4
  store ptr %call28.i, ptr %seed.i, align 8
  %tobool31.not.i = icmp eq ptr %call28.i, null
  br i1 %tobool31.not.i, label %if.then3, label %if.end33.i

if.end33.i:                                       ; preds = %if.then25.i
  %12 = load i32, ptr %seedlen27.i, align 8
  store i32 %12, ptr %seedlen.i, align 8
  br label %return

if.then3:                                         ; preds = %if.then25.i, %if.then.i.i, %if.then.i20.i, %if.then.i28.i, %if.then.i36.i
  tail call void @DH_free(ptr noundef nonnull %calloc.i)
  br label %return

return:                                           ; preds = %if.end33.i, %if.end21.i, %int_dh_bn_cpy.exit26.i, %DH_new.exit.thread, %if.then3
  %retval.0 = phi ptr [ null, %if.then3 ], [ null, %DH_new.exit.thread ], [ %calloc.i, %int_dh_bn_cpy.exit26.i ], [ %calloc.i, %if.end21.i ], [ %calloc.i, %if.end33.i ]
  ret ptr %retval.0
}